; Function Attrs: nounwind uwtable
define internal fastcc range(i32 -12, 1) i32 @wv_dsd_reset(ptr noundef initializes((64, 68)) %0, i32 noundef %1) unnamed_addr #0 {
  %3 = getelementptr inbounds nuw i8, ptr %0, i64 64
  store i32 0, ptr %3, align 8, !tbaa !35
  %4 = getelementptr inbounds nuw i8, ptr %0, i64 32
  tail call void @av_refstruct_unref(ptr noundef nonnull %4) #12
  %5 = getelementptr inbounds nuw i8, ptr %0, i64 40
  tail call void @av_refstruct_unref(ptr noundef nonnull %5) #12
  %6 = getelementptr inbounds nuw i8, ptr %0, i64 48
  tail call void @av_refstruct_unref(ptr noundef nonnull %6) #12
  %.not = icmp eq i32 %1, 0
  br i1 %.not, label %15, label %7

7:                                                ; preds = %2
  %8 = sext i32 %1 to i64
  %9 = mul nsw i64 %8, 20
  %10 = tail call ptr @av_refstruct_alloc_ext_c(i64 noundef range(i64 -42949672960, 42949672941) %9, i32 noundef 0, ptr null, ptr noundef null) #12
  store ptr %10, ptr %4, align 8, !tbaa !34
  %.not17 = icmp eq ptr %10, null
  br i1 %.not17, label %15, label %11

11:                                               ; preds = %7
  store i32 %1, ptr %3, align 8, !tbaa !35
  %12 = icmp sgt i32 %1, 0
  br i1 %12, label %.lr.ph.preheader, label %._crit_edge

.lr.ph.preheader:                                 ; preds = %11
  %wide.trip.count = zext nneg i32 %1 to i64
  br label %.lr.ph

.lr.ph:                                           ; preds = %.lr.ph.preheader, %.lr.ph
  %indvars.iv = phi i64 [ 0, %.lr.ph.preheader ], [ %indvars.iv.next, %.lr.ph ]
  %13 = load ptr, ptr %4, align 8, !tbaa !34
  %14 = getelementptr inbounds nuw %struct.DSDContext, ptr %13, i64 %indvars.iv
  tail call void @llvm.memset.p0.i64(ptr noundef nonnull align 4 dereferenceable(16) %14, i8 105, i64 16, i1 false)
  %indvars.iv.next = add nuw nsw i64 %indvars.iv, 1
  %exitcond.not = icmp eq i64 %indvars.iv.next, %wide.trip.count
  br i1 %exitcond.not, label %._crit_edge, label %.lr.ph, !llvm.loop !123

._crit_edge:                                      ; preds = %.lr.ph, %11
  tail call void @ff_init_dsd_data() #12
  br label %15

15:                                               ; preds = %7, %2, %._crit_edge
  %.015 = phi i32 [ 0, %._crit_edge ], [ 0, %2 ], [ -12, %7 ]
  ret i32 %.015
}